target datalayout = "e-m:e-p270:32:32-p271:32:32-p272:64:64-i64:64-i128:128-f80:128-n8:16:32:64-S128"
target triple = "x86_64-pc-linux-gnu"

%struct.jv = type { i8, i8, i16, i32, %union.anon }
%union.anon = type { ptr }
%struct.jq_state = type { ptr, ptr, ptr, ptr, ptr, %struct.jv, %struct.stack, i32, i32, i32, %struct.jv, %struct.jv, i32, i32, i32, i32, i32, %struct.jv, %struct.jv, %struct.jv, ptr, ptr, ptr, ptr, ptr, ptr }
%struct.stack = type { ptr, i32, i32 }
%struct.stack_pos = type { i32, i32 }

; Function Attrs: nounwind uwtable
define dso_local i64 @stack_get_pos(ptr noundef %0) #0 {
  %2 = alloca %struct.stack_pos, align 4
  %3 = alloca ptr, align 8
  store ptr %0, ptr %3, align 8, !tbaa !4
  %4 = getelementptr inbounds nuw %struct.stack_pos, ptr %2, i32 0, i32 0
  %5 = load ptr, ptr %3, align 8, !tbaa !4
  %6 = getelementptr inbounds nuw %struct.jq_state, ptr %5, i32 0, i32 8
  %7 = load i32, ptr %6, align 4, !tbaa !9
  store i32 %7, ptr %4, align 4, !tbaa !29
  %8 = getelementptr inbounds nuw %struct.stack_pos, ptr %2, i32 0, i32 1
  %9 = load ptr, ptr %3, align 8, !tbaa !4
  %10 = getelementptr inbounds nuw %struct.jq_state, ptr %9, i32 0, i32 7
  %11 = load i32, ptr %10, align 8, !tbaa !31
  store i32 %11, ptr %8, align 4, !tbaa !32
  %12 = load i64, ptr %2, align 4
  ret i64 %12
}